target datalayout = "e-m:e-p270:32:32-p271:32:32-p272:64:64-i64:64-i128:128-f80:128-n8:16:32:64-S128"
target triple = "x86_64-pc-linux-gnu"

%struct.mbedtls_md_info_t = type { ptr, i32, i8, i8 }
%struct.mbedtls_md_context_t = type { ptr, ptr, ptr }

; Function Attrs: mustprogress uwtable
define hidden i32 @mbedtls_md_clone(ptr noundef %0, ptr noundef %1) #1 {
  %3 = alloca i32, align 4
  %4 = alloca ptr, align 8
  %5 = alloca ptr, align 8
  store ptr %0, ptr %4, align 8, !tbaa !10
  store ptr %1, ptr %5, align 8, !tbaa !10
  %6 = load ptr, ptr %4, align 8, !tbaa !10
  %7 = icmp eq ptr %6, null
  br i1 %7, label %29, label %8

8:                                                ; preds = %2
  %9 = load ptr, ptr %4, align 8, !tbaa !10
  %10 = getelementptr inbounds nuw %struct.mbedtls_md_context_t, ptr %9, i32 0, i32 0
  %11 = load ptr, ptr %10, align 8, !tbaa !12
  %12 = icmp eq ptr %11, null
  br i1 %12, label %29, label %13

13:                                               ; preds = %8
  %14 = load ptr, ptr %5, align 8, !tbaa !10
  %15 = icmp eq ptr %14, null
  br i1 %15, label %29, label %16

16:                                               ; preds = %13
  %17 = load ptr, ptr %5, align 8, !tbaa !10
  %18 = getelementptr inbounds nuw %struct.mbedtls_md_context_t, ptr %17, i32 0, i32 0
  %19 = load ptr, ptr %18, align 8, !tbaa !12
  %20 = icmp eq ptr %19, null
  br i1 %20, label %29, label %21

21:                                               ; preds = %16
  %22 = load ptr, ptr %4, align 8, !tbaa !10
  %23 = getelementptr inbounds nuw %struct.mbedtls_md_context_t, ptr %22, i32 0, i32 0
  %24 = load ptr, ptr %23, align 8, !tbaa !12
  %25 = load ptr, ptr %5, align 8, !tbaa !10
  %26 = getelementptr inbounds nuw %struct.mbedtls_md_context_t, ptr %25, i32 0, i32 0
  %27 = load ptr, ptr %26, align 8, !tbaa !12
  %28 = icmp ne ptr %24, %27
  br i1 %28, label %29, label %30

29:                                               ; preds = %21, %16, %13, %8, %2
  store i32 -20736, ptr %3, align 4
  br label %59

30:                                               ; preds = %21
  %31 = load ptr, ptr %5, align 8, !tbaa !10
  %32 = getelementptr inbounds nuw %struct.mbedtls_md_context_t, ptr %31, i32 0, i32 0
  %33 = load ptr, ptr %32, align 8, !tbaa !12
  %34 = getelementptr inbounds nuw %struct.mbedtls_md_info_t, ptr %33, i32 0, i32 1
  %35 = load i32, ptr %34, align 8, !tbaa !16
  switch i32 %35, label %57 [
    i32 2, label %36
    i32 3, label %43
    i32 4, label %50
  ]

36:                                               ; preds = %30
  %37 = load ptr, ptr %4, align 8, !tbaa !10
  %38 = getelementptr inbounds nuw %struct.mbedtls_md_context_t, ptr %37, i32 0, i32 1
  %39 = load ptr, ptr %38, align 8, !tbaa !15
  %40 = load ptr, ptr %5, align 8, !tbaa !10
  %41 = getelementptr inbounds nuw %struct.mbedtls_md_context_t, ptr %40, i32 0, i32 1
  %42 = load ptr, ptr %41, align 8, !tbaa !15
  call void @mbedtls_sha1_clone(ptr noundef %39, ptr noundef %42)
  br label %58

43:                                               ; preds = %30
  %44 = load ptr, ptr %4, align 8, !tbaa !10
  %45 = getelementptr inbounds nuw %struct.mbedtls_md_context_t, ptr %44, i32 0, i32 1
  %46 = load ptr, ptr %45, align 8, !tbaa !15
  %47 = load ptr, ptr %5, align 8, !tbaa !10
  %48 = getelementptr inbounds nuw %struct.mbedtls_md_context_t, ptr %47, i32 0, i32 1
  %49 = load ptr, ptr %48, align 8, !tbaa !15
  call void @mbedtls_sha256_clone(ptr noundef %46, ptr noundef %49)
  br label %58

50:                                               ; preds = %30
  %51 = load ptr, ptr %4, align 8, !tbaa !10
  %52 = getelementptr inbounds nuw %struct.mbedtls_md_context_t, ptr %51, i32 0, i32 1
  %53 = load ptr, ptr %52, align 8, !tbaa !15
  %54 = load ptr, ptr %5, align 8, !tbaa !10
  %55 = getelementptr inbounds nuw %struct.mbedtls_md_context_t, ptr %54, i32 0, i32 1
  %56 = load ptr, ptr %55, align 8, !tbaa !15
  call void @mbedtls_sha256_clone(ptr noundef %53, ptr noundef %56)
  br label %58

57:                                               ; preds = %30
  store i32 -20736, ptr %3, align 4
  br label %59

58:                                               ; preds = %50, %43, %36
  store i32 0, ptr %3, align 4
  br label %59

59:                                               ; preds = %58, %57, %29
  %60 = load i32, ptr %3, align 4
  ret i32 %60
}