; Function Attrs: mustprogress uwtable
define hidden range(i32 -20736, 1) i32 @mbedtls_md_clone(ptr noundef readonly captures(address_is_null) %0, ptr noundef readonly captures(address_is_null) %1) local_unnamed_addr #5 {
  %3 = icmp eq ptr %0, null
  br i1 %3, label %28, label %4

4:                                                ; preds = %2
  %5 = load ptr, ptr %0, align 8, !tbaa !3
  %6 = icmp eq ptr %5, null
  %7 = icmp eq ptr %1, null
  %or.cond = or i1 %7, %6
  br i1 %or.cond, label %28, label %8

8:                                                ; preds = %4
  %9 = load ptr, ptr %1, align 8, !tbaa !3
  %.not = icmp eq ptr %5, %9
  br i1 %.not, label %10, label %28

10:                                               ; preds = %8
  %11 = getelementptr inbounds nuw i8, ptr %9, i64 8
  %12 = load i32, ptr %11, align 8, !tbaa !10
  switch i32 %12, label %28 [
    i32 2, label %13
    i32 3, label %18
    i32 4, label %23
  ]

13:                                               ; preds = %10
  %14 = getelementptr inbounds nuw i8, ptr %0, i64 8
  %15 = load ptr, ptr %14, align 8, !tbaa !9
  %16 = getelementptr inbounds nuw i8, ptr %1, i64 8
  %17 = load ptr, ptr %16, align 8, !tbaa !9
  tail call void @mbedtls_sha1_clone(ptr noundef %15, ptr noundef %17)
  br label %28

18:                                               ; preds = %10
  %19 = getelementptr inbounds nuw i8, ptr %0, i64 8
  %20 = load ptr, ptr %19, align 8, !tbaa !9
  %21 = getelementptr inbounds nuw i8, ptr %1, i64 8
  %22 = load ptr, ptr %21, align 8, !tbaa !9
  tail call void @mbedtls_sha256_clone(ptr noundef %20, ptr noundef %22)
  br label %28

23:                                               ; preds = %10
  %24 = getelementptr inbounds nuw i8, ptr %0, i64 8
  %25 = load ptr, ptr %24, align 8, !tbaa !9
  %26 = getelementptr inbounds nuw i8, ptr %1, i64 8
  %27 = load ptr, ptr %26, align 8, !tbaa !9
  tail call void @mbedtls_sha256_clone(ptr noundef %25, ptr noundef %27)
  br label %28

28:                                               ; preds = %13, %18, %23, %10, %2, %4, %8
  %.0 = phi i32 [ -20736, %8 ], [ -20736, %4 ], [ -20736, %2 ], [ -20736, %10 ], [ 0, %23 ], [ 0, %18 ], [ 0, %13 ]
  ret i32 %.0
}